; Function Attrs: mustprogress nounwind uwtable
define hidden void @_ZN6hermes3sem17SemanticValidator5visitEPNS_6ESTree16ArrayPatternNodeE(ptr noundef nonnull align 8 dereferenceable(168) %this, ptr noundef %AP) local_unnamed_addr #0 align 2 {
entry:
  %_elements.i = getelementptr inbounds nuw i8, ptr %AP, i64 48
  %Next.i.i.i.i.i = getelementptr inbounds nuw i8, ptr %AP, i64 56
  %__begin4.i.sroa.0.07.i = load ptr, ptr %Next.i.i.i.i.i, align 8
  %cmp.i.not8.i = icmp eq ptr %__begin4.i.sroa.0.07.i, %_elements.i
  br i1 %cmp.i.not8.i, label %_ZN6hermes6ESTree24RecursiveVisitorDispatchINS_3sem17SemanticValidatorELb1EE13visitChildrenERS3_PNS0_16ArrayPatternNodeE.exit, label %for.body.i.i

for.body.i.i:                                     ; preds = %entry, %for.body.i.i
  %__begin4.i.sroa.0.09.i = phi ptr [ %__begin4.i.sroa.0.0.i, %for.body.i.i ], [ %__begin4.i.sroa.0.07.i, %entry ]
  %call5.i.i = tail call { ptr, i8 } @_ZN6hermes6ESTree24RecursiveVisitorDispatchINS_3sem17SemanticValidatorELb1EE5visitERS3_PNS0_4NodeES7_(ptr noundef nonnull align 8 dereferenceable(168) %this, ptr noundef nonnull %__begin4.i.sroa.0.09.i, ptr noundef %AP) #22
  %Next.i.i.i.i = getelementptr inbounds nuw i8, ptr %__begin4.i.sroa.0.09.i, i64 8
  %__begin4.i.sroa.0.0.i = load ptr, ptr %Next.i.i.i.i, align 8
  %cmp.i.not.i = icmp eq ptr %__begin4.i.sroa.0.0.i, %_elements.i
  br i1 %cmp.i.not.i, label %_ZN6hermes6ESTree24RecursiveVisitorDispatchINS_3sem17SemanticValidatorELb1EE13visitChildrenERS3_PNS0_16ArrayPatternNodeE.exit, label %for.body.i.i

_ZN6hermes6ESTree24RecursiveVisitorDispatchINS_3sem17SemanticValidatorELb1EE13visitChildrenERS3_PNS0_16ArrayPatternNodeE.exit: ; preds = %for.body.i.i, %entry
  %_typeAnnotation.i = getelementptr inbounds nuw i8, ptr %AP, i64 64
  %0 = load ptr, ptr %_typeAnnotation.i, align 8
  %call.i = tail call { ptr, i8 } @_ZN6hermes6ESTree24RecursiveVisitorDispatchINS_3sem17SemanticValidatorELb1EE5visitERS3_PNS0_4NodeES7_(ptr noundef nonnull align 8 dereferenceable(168) %this, ptr noundef %0, ptr noundef %AP) #22
  ret void
}